; Function Attrs: mustprogress uwtable
define hidden void @_ZN3opt15model_based_opt9get_valueEj(ptr dead_on_unwind noalias writable sret(%class.rational) align 8 initializes((0, 4), (8, 20), (24, 32)) %0, ptr noundef nonnull readonly align 8 captures(none) dereferenceable(112) %1, i32 noundef %2) local_unnamed_addr #3 align 2 {
  %4 = getelementptr inbounds nuw i8, ptr %1, i64 16
  %5 = load ptr, ptr %4, align 8, !tbaa !70
  %6 = zext i32 %2 to i64
  %7 = getelementptr inbounds nuw %class.rational, ptr %5, i64 %6
  store i32 0, ptr %0, align 8, !tbaa !10
  %8 = getelementptr inbounds nuw i8, ptr %0, i64 4
  %9 = load i8, ptr %8, align 4
  %10 = and i8 %9, -4
  store i8 %10, ptr %8, align 4
  %11 = getelementptr inbounds nuw i8, ptr %0, i64 8
  store ptr null, ptr %11, align 8, !tbaa !3
  %12 = getelementptr inbounds nuw i8, ptr %0, i64 16
  store i32 1, ptr %12, align 8, !tbaa !10
  %13 = getelementptr inbounds nuw i8, ptr %0, i64 20
  %14 = load i8, ptr %13, align 4
  %15 = and i8 %14, -4
  store i8 %15, ptr %13, align 4
  %16 = getelementptr inbounds nuw i8, ptr %0, i64 24
  store ptr null, ptr %16, align 8, !tbaa !3
  %17 = load ptr, ptr @_ZN8rational13g_mpq_managerE, align 8, !tbaa !11
  %18 = getelementptr inbounds nuw i8, ptr %7, i64 4
  %19 = load i8, ptr %18, align 4
  %20 = and i8 %19, 1
  %21 = icmp eq i8 %20, 0
  br i1 %21, label %22, label %24

22:                                               ; preds = %3
  %23 = load i32, ptr %7, align 8, !tbaa !10
  store i32 %23, ptr %0, align 8, !tbaa !10
  store i8 %10, ptr %8, align 4
  br label %_ZN11mpq_managerILb1EE3setER3mpzRKS1_.exit.i.i

24:                                               ; preds = %3
  tail call void @_ZN11mpz_managerILb1EE7big_setER3mpzRKS1_(ptr noundef nonnull align 8 dereferenceable(728) %17, ptr noundef nonnull align 8 dereferenceable(32) %0, ptr noundef nonnull align 8 dereferenceable(32) %7)
  br label %_ZN11mpq_managerILb1EE3setER3mpzRKS1_.exit.i.i

_ZN11mpq_managerILb1EE3setER3mpzRKS1_.exit.i.i:   ; preds = %24, %22
  %25 = getelementptr inbounds nuw i8, ptr %7, i64 16
  %26 = getelementptr inbounds nuw i8, ptr %7, i64 20
  %27 = load i8, ptr %26, align 4
  %28 = and i8 %27, 1
  %29 = icmp eq i8 %28, 0
  br i1 %29, label %30, label %34

30:                                               ; preds = %_ZN11mpq_managerILb1EE3setER3mpzRKS1_.exit.i.i
  %31 = load i32, ptr %25, align 8, !tbaa !10
  store i32 %31, ptr %12, align 8, !tbaa !10
  %32 = load i8, ptr %13, align 4
  %33 = and i8 %32, -2
  store i8 %33, ptr %13, align 4
  br label %_ZN8rationalC2ERKS_.exit

34:                                               ; preds = %_ZN11mpq_managerILb1EE3setER3mpzRKS1_.exit.i.i
  tail call void @_ZN11mpz_managerILb1EE7big_setER3mpzRKS1_(ptr noundef nonnull align 8 dereferenceable(728) %17, ptr noundef nonnull align 8 dereferenceable(16) %12, ptr noundef nonnull align 8 dereferenceable(16) %25)
  br label %_ZN8rationalC2ERKS_.exit

_ZN8rationalC2ERKS_.exit:                         ; preds = %30, %34
  ret void
}